; Function Attrs: nounwind uwtable
define internal fastcc void @zend_jit_fe_reset(ptr noundef %0, ptr nocapture noundef readonly %1, i32 noundef %2) unnamed_addr #0 {
  %4 = getelementptr inbounds i8, ptr %1, i64 16
  %5 = load i32, ptr %4, align 8
  %6 = zext i32 %5 to i64
  %7 = shl nuw nsw i64 %6, 8
  %8 = or disjoint i64 %7, 57
  %9 = getelementptr inbounds i8, ptr %1, i64 29
  %10 = load i8, ptr %9, align 1
  %11 = icmp eq i8 %10, 1
  %12 = getelementptr inbounds i8, ptr %1, i64 8
  %13 = load i32, ptr %12, align 8
  br i1 %11, label %14, label %17

14:                                               ; preds = %3
  %15 = sext i32 %13 to i64
  %16 = getelementptr inbounds i8, ptr %1, i64 %15
  tail call fastcc void @jit_ZVAL_COPY_CONST(ptr noundef %0, i64 noundef %8, i32 noundef 1022, i32 noundef 1022, ptr noundef %16)
  br label %22

17:                                               ; preds = %3
  %18 = zext i32 %13 to i64
  %19 = shl nuw nsw i64 %18, 8
  %20 = or disjoint i64 %19, 57
  %21 = icmp eq i8 %10, 8
  tail call fastcc void @jit_ZVAL_COPY(ptr noundef %0, i64 noundef %8, i32 noundef -1, i64 noundef %20, i32 noundef %2, i1 noundef zeroext %21)
  br label %22

22:                                               ; preds = %17, %14
  %23 = getelementptr inbounds i8, ptr %0, i64 248
  %24 = load i32, ptr %23, align 8
  %25 = icmp ne i32 %24, 0
  tail call void @llvm.assume(i1 %25)
  %26 = getelementptr inbounds i8, ptr %0, i64 700
  %27 = load i32, ptr %26, align 4
  %28 = icmp eq i32 %27, 0
  br i1 %28, label %.loopexit.sink.split.i, label %.preheader.i

.preheader.i:                                     ; preds = %22
  %29 = icmp eq i32 %24, %27
  br i1 %29, label %jit_FP.exit, label %.lr.ph.i

.lr.ph.i:                                         ; preds = %.preheader.i
  %30 = load ptr, ptr %0, align 8
  br label %31

31:                                               ; preds = %37, %.lr.ph.i
  %.015.i = phi i32 [ %24, %.lr.ph.i ], [ %39, %37 ]
  %32 = sext i32 %.015.i to i64
  %33 = getelementptr inbounds %struct._ir_insn, ptr %30, i64 %32
  %34 = load i8, ptr %33, align 8
  %35 = icmp ugt i8 %34, 88
  %36 = icmp eq i8 %34, 69
  %or.cond.i = or i1 %35, %36
  br i1 %or.cond.i, label %.loopexit.sink.split.i, label %37

37:                                               ; preds = %31
  %38 = getelementptr inbounds i8, ptr %33, i64 4
  %39 = load i32, ptr %38, align 4
  %40 = icmp eq i32 %39, %27
  br i1 %40, label %jit_FP.exit, label %31

.loopexit.sink.split.i:                           ; preds = %31, %22
  %41 = tail call i32 @_ir_RLOAD(ptr noundef nonnull %0, i32 noundef 6, i32 noundef 14) #32
  store i32 %41, ptr %26, align 4
  br label %jit_FP.exit

jit_FP.exit:                                      ; preds = %37, %.preheader.i, %.loopexit.sink.split.i
  %42 = phi i32 [ %24, %.preheader.i ], [ %41, %.loopexit.sink.split.i ], [ %27, %37 ]
  %43 = load i32, ptr %4, align 8
  %44 = zext i32 %43 to i64
  %45 = add nuw nsw i64 %44, 12
  %46 = getelementptr inbounds i8, ptr %0, i64 808
  %47 = tail call ptr @zend_hash_index_lookup(ptr noundef nonnull %46, i64 noundef %45) #32
  %48 = getelementptr inbounds i8, ptr %47, i64 8
  %49 = load i8, ptr %48, align 8
  %50 = icmp eq i8 %49, 4
  br i1 %50, label %51, label %59

51:                                               ; preds = %jit_FP.exit
  %52 = load i64, ptr %47, align 8
  %53 = trunc i64 %52 to i32
  %54 = load ptr, ptr %0, align 8
  %sext.i.i = shl i64 %52, 32
  %55 = ashr exact i64 %sext.i.i, 32
  %56 = getelementptr inbounds %struct._ir_insn, ptr %54, i64 %55
  %57 = load i16, ptr %56, align 8
  %58 = icmp eq i16 %57, 1542
  tail call void @llvm.assume(i1 %58)
  br label %jit_ADD_OFFSET.exit

59:                                               ; preds = %jit_FP.exit
  %60 = tail call i32 @ir_unique_const_addr(ptr noundef %0, i64 noundef %45) #32
  %61 = sext i32 %60 to i64
  store i64 %61, ptr %47, align 8
  store i32 4, ptr %48, align 8
  br label %jit_ADD_OFFSET.exit

jit_ADD_OFFSET.exit:                              ; preds = %51, %59
  %.0.i.i = phi i32 [ %53, %51 ], [ %60, %59 ]
  %62 = tail call i32 @ir_fold2(ptr noundef %0, i32 noundef 1560, i32 noundef %42, i32 noundef %.0.i.i) #32
  %63 = tail call i32 @ir_const_u32(ptr noundef %0, i32 noundef 0) #32
  tail call void @_ir_STORE(ptr noundef %0, i32 noundef %62, i32 noundef %63) #32
  ret void
}